; Function Attrs: nounwind sspstrong uwtable
define internal noundef i64 @rb_queue_close(i64 noundef returned %0) #0 {
  %2 = tail call ptr @rb_check_typeddata(i64 noundef %0, ptr noundef nonnull @queue_data_type) #17
  %3 = load ptr, ptr @ruby_current_vm_ptr, align 8, !tbaa !147
  %4 = getelementptr inbounds nuw i8, ptr %3, i64 480
  %5 = load i64, ptr %4, align 8, !tbaa !193
  %6 = getelementptr inbounds nuw i8, ptr %2, i64 16
  %7 = load i64, ptr %6, align 1, !tbaa !194
  %8 = icmp eq i64 %7, %5
  br i1 %8, label %queue_ptr.exit, label %9

9:                                                ; preds = %1
  store i64 %5, ptr %6, align 1, !tbaa !194
  %10 = getelementptr inbounds nuw i8, ptr %2, i64 8
  store ptr %2, ptr %10, align 8, !tbaa !55
  store ptr %2, ptr %2, align 8, !tbaa !54
  %11 = getelementptr inbounds nuw i8, ptr %2, i64 32
  store i32 0, ptr %11, align 1, !tbaa !196
  br label %queue_ptr.exit

queue_ptr.exit:                                   ; preds = %1, %9
  %12 = inttoptr i64 %0 to ptr
  %13 = load i64, ptr %12, align 8, !tbaa !42
  %14 = and i64 %13, 131072
  %.not = icmp eq i64 %14, 0
  br i1 %.not, label %15, label %23

15:                                               ; preds = %queue_ptr.exit
  %16 = icmp eq i64 %0, 0
  %17 = and i64 %0, 7
  %18 = icmp ne i64 %17, 0
  %19 = or i1 %16, %18
  %20 = and i64 %13, 31
  %.not.i = icmp eq i64 %20, 27
  %or.cond = or i1 %19, %.not.i
  br i1 %or.cond, label %RB_FL_SET.exit, label %21

21:                                               ; preds = %15
  %22 = or disjoint i64 %13, 131072
  store i64 %22, ptr %12, align 8, !tbaa !42
  br label %RB_FL_SET.exit

RB_FL_SET.exit:                                   ; preds = %15, %21
  tail call fastcc void @sync_wakeup(ptr noundef nonnull %2, i64 noundef 9223372036854775807)
  br label %23

23:                                               ; preds = %RB_FL_SET.exit, %queue_ptr.exit
  ret i64 %0
}